; Function Attrs: nounwind uwtable
define noalias nonnull ptr @l_ST_Ref_toMonadStateOf___rarg(ptr noundef %0, ptr readnone captures(none) %1, ptr noundef %2) #1 {
  %4 = ptrtoint ptr %2 to i64
  %5 = and i64 %4, 1
  %.not = icmp eq i64 %5, 0
  br i1 %.not, label %6, label %lean_inc.exit28

6:                                                ; preds = %3
  %.val.i = load i32, ptr %2, align 4, !tbaa !8
  %7 = icmp sgt i32 %.val.i, 0
  br i1 %7, label %8, label %10, !prof !13

8:                                                ; preds = %6
  %9 = add nuw i32 %.val.i, 1
  store i32 %9, ptr %2, align 4, !tbaa !8
  br label %lean_inc.exit28

10:                                               ; preds = %6
  %.not.i = icmp eq i32 %.val.i, 0
  br i1 %.not.i, label %lean_inc.exit28, label %11

11:                                               ; preds = %10
  tail call void @lean_inc_ref_cold(ptr noundef nonnull %2) #5
  br label %lean_inc.exit28

lean_inc.exit28:                                  ; preds = %11, %10, %8, %3
  tail call void @lean_inc_heartbeat() #5
  %12 = tail call noalias ptr @mi_malloc_small(i64 noundef 48) #5
  %13 = icmp eq ptr %12, null
  br i1 %13, label %14, label %lean_alloc_closure.exit

14:                                               ; preds = %lean_inc.exit28
  tail call void @lean_internal_panic_out_of_memory() #6
  unreachable

lean_alloc_closure.exit:                          ; preds = %lean_inc.exit28
  %15 = getelementptr inbounds nuw i8, ptr %12, i64 4
  store i32 1, ptr %12, align 4, !tbaa !8
  store i32 -184549328, ptr %15, align 4
  %16 = getelementptr inbounds nuw i8, ptr %12, i64 8
  store ptr @l_ST_Prim_Ref_get___boxed, ptr %16, align 8, !tbaa !4
  %17 = getelementptr inbounds nuw i8, ptr %12, i64 16
  store i16 4, ptr %17, align 8, !tbaa !11
  %18 = getelementptr inbounds nuw i8, ptr %12, i64 18
  store i16 3, ptr %18, align 2, !tbaa !11
  %19 = getelementptr inbounds nuw i8, ptr %12, i64 24
  store ptr inttoptr (i64 1 to ptr), ptr %19, align 8, !tbaa !4
  %20 = getelementptr inbounds nuw i8, ptr %12, i64 32
  store ptr inttoptr (i64 1 to ptr), ptr %20, align 8, !tbaa !4
  %21 = getelementptr inbounds nuw i8, ptr %12, i64 40
  store ptr %2, ptr %21, align 8, !tbaa !4
  %22 = ptrtoint ptr %0 to i64
  %23 = and i64 %22, 1
  %.not40 = icmp eq i64 %23, 0
  br i1 %.not40, label %24, label %lean_inc.exit27

24:                                               ; preds = %lean_alloc_closure.exit
  %.val.i29 = load i32, ptr %0, align 4, !tbaa !8
  %25 = icmp sgt i32 %.val.i29, 0
  br i1 %25, label %26, label %28, !prof !13

26:                                               ; preds = %24
  %27 = add nuw i32 %.val.i29, 1
  store i32 %27, ptr %0, align 4, !tbaa !8
  br label %lean_inc.exit27

28:                                               ; preds = %24
  %.not.i30 = icmp eq i32 %.val.i29, 0
  br i1 %.not.i30, label %lean_inc.exit27, label %29

29:                                               ; preds = %28
  tail call void @lean_inc_ref_cold(ptr noundef nonnull %0) #5
  br label %lean_inc.exit27

lean_inc.exit27:                                  ; preds = %29, %28, %26, %lean_alloc_closure.exit
  %30 = tail call ptr @lean_apply_2(ptr noundef %0, ptr noundef nonnull inttoptr (i64 1 to ptr), ptr noundef nonnull %12) #5
  br i1 %.not, label %31, label %lean_inc.exit26

31:                                               ; preds = %lean_inc.exit27
  %.val.i32 = load i32, ptr %2, align 4, !tbaa !8
  %32 = icmp sgt i32 %.val.i32, 0
  br i1 %32, label %33, label %35, !prof !13

33:                                               ; preds = %31
  %34 = add nuw i32 %.val.i32, 1
  store i32 %34, ptr %2, align 4, !tbaa !8
  br label %lean_inc.exit26

35:                                               ; preds = %31
  %.not.i33 = icmp eq i32 %.val.i32, 0
  br i1 %.not.i33, label %lean_inc.exit26, label %36

36:                                               ; preds = %35
  tail call void @lean_inc_ref_cold(ptr noundef nonnull %2) #5
  br label %lean_inc.exit26

lean_inc.exit26:                                  ; preds = %36, %35, %33, %lean_inc.exit27
  br i1 %.not40, label %37, label %lean_inc.exit

37:                                               ; preds = %lean_inc.exit26
  %.val.i35 = load i32, ptr %0, align 4, !tbaa !8
  %38 = icmp sgt i32 %.val.i35, 0
  br i1 %38, label %39, label %41, !prof !13

39:                                               ; preds = %37
  %40 = add nuw i32 %.val.i35, 1
  store i32 %40, ptr %0, align 4, !tbaa !8
  br label %lean_inc.exit

41:                                               ; preds = %37
  %.not.i36 = icmp eq i32 %.val.i35, 0
  br i1 %.not.i36, label %lean_inc.exit, label %42

42:                                               ; preds = %41
  tail call void @lean_inc_ref_cold(ptr noundef nonnull %0) #5
  br label %lean_inc.exit

lean_inc.exit:                                    ; preds = %42, %41, %39, %lean_inc.exit26
  tail call void @lean_inc_heartbeat() #5
  %43 = tail call noalias ptr @mi_malloc_small(i64 noundef 48) #5
  %44 = icmp eq ptr %43, null
  br i1 %44, label %45, label %lean_alloc_closure.exit38

45:                                               ; preds = %lean_inc.exit
  tail call void @lean_internal_panic_out_of_memory() #6
  unreachable

lean_alloc_closure.exit38:                        ; preds = %lean_inc.exit
  %46 = getelementptr inbounds nuw i8, ptr %43, i64 4
  store i32 1, ptr %43, align 4, !tbaa !8
  store i32 -184549328, ptr %46, align 4
  %47 = getelementptr inbounds nuw i8, ptr %43, i64 8
  store ptr @l_ST_Ref_toMonadStateOf___elambda__2___rarg, ptr %47, align 8, !tbaa !4
  %48 = getelementptr inbounds nuw i8, ptr %43, i64 16
  store i16 4, ptr %48, align 8, !tbaa !11
  %49 = getelementptr inbounds nuw i8, ptr %43, i64 18
  store i16 3, ptr %49, align 2, !tbaa !11
  %50 = getelementptr inbounds nuw i8, ptr %43, i64 24
  store ptr %0, ptr %50, align 8, !tbaa !4
  %51 = getelementptr inbounds nuw i8, ptr %43, i64 32
  store ptr inttoptr (i64 1 to ptr), ptr %51, align 8, !tbaa !4
  %52 = getelementptr inbounds nuw i8, ptr %43, i64 40
  store ptr %2, ptr %52, align 8, !tbaa !4
  tail call void @lean_inc_heartbeat() #5
  %53 = tail call noalias ptr @mi_malloc_small(i64 noundef 40) #5
  %54 = icmp eq ptr %53, null
  br i1 %54, label %55, label %lean_alloc_closure.exit39

55:                                               ; preds = %lean_alloc_closure.exit38
  tail call void @lean_internal_panic_out_of_memory() #6
  unreachable

lean_alloc_closure.exit39:                        ; preds = %lean_alloc_closure.exit38
  %56 = getelementptr inbounds nuw i8, ptr %53, i64 4
  store i32 1, ptr %53, align 4, !tbaa !8
  store i32 -184549336, ptr %56, align 4
  %57 = getelementptr inbounds nuw i8, ptr %53, i64 8
  store ptr @l_ST_Ref_toMonadStateOf___elambda__1___rarg, ptr %57, align 8, !tbaa !4
  %58 = getelementptr inbounds nuw i8, ptr %53, i64 16
  store i16 4, ptr %58, align 8, !tbaa !11
  %59 = getelementptr inbounds nuw i8, ptr %53, i64 18
  store i16 2, ptr %59, align 2, !tbaa !11
  %60 = getelementptr inbounds nuw i8, ptr %53, i64 24
  store ptr %2, ptr %60, align 8, !tbaa !4
  %61 = getelementptr inbounds nuw i8, ptr %53, i64 32
  store ptr %0, ptr %61, align 8, !tbaa !4
  tail call void @lean_inc_heartbeat() #5
  %62 = tail call noalias ptr @mi_malloc_small(i64 noundef 32) #5
  %63 = icmp eq ptr %62, null
  br i1 %63, label %64, label %lean_alloc_ctor.exit

64:                                               ; preds = %lean_alloc_closure.exit39
  tail call void @lean_internal_panic_out_of_memory() #6
  unreachable

lean_alloc_ctor.exit:                             ; preds = %lean_alloc_closure.exit39
  %65 = getelementptr inbounds nuw i8, ptr %62, i64 4
  store i32 1, ptr %62, align 4, !tbaa !8
  store i32 196640, ptr %65, align 4
  %66 = getelementptr inbounds nuw i8, ptr %62, i64 8
  store ptr %30, ptr %66, align 8, !tbaa !4
  %67 = getelementptr inbounds nuw i8, ptr %62, i64 16
  store ptr %43, ptr %67, align 8, !tbaa !4
  %68 = getelementptr inbounds nuw i8, ptr %62, i64 24
  store ptr %53, ptr %68, align 8, !tbaa !4
  ret ptr %62
}